; Function Attrs: mustprogress uwtable
define dso_local noundef ptr @_ZN18cmCTestTestCommand23InitializeActualHandlerEv(ptr nocapture noundef nonnull readonly align 8 dereferenceable(953) %0) unnamed_addr #3 align 2 {
  %2 = getelementptr inbounds i8, ptr %0, i64 24
  %3 = load ptr, ptr %2, align 8
  %4 = tail call noundef ptr @_ZN7cmCTest14GetTestHandlerEv(ptr noundef nonnull align 8 dereferenceable(8) %3)
  %5 = load ptr, ptr %4, align 8
  %6 = getelementptr inbounds i8, ptr %5, i64 24
  %7 = load ptr, ptr %6, align 8
  tail call void %7(ptr noundef nonnull align 8 dereferenceable(4416) %4)
  ret ptr %4
}